; Function Attrs: mustprogress uwtable
define void @_ZN3net17QuicPacketCreator18SetMaxPacketLengthEm(ptr noundef nonnull align 8 captures(none) dereferenceable(312) %0, i64 noundef %1) local_unnamed_addr #0 align 2 {
  %3 = getelementptr inbounds nuw i8, ptr %0, i64 96
  %4 = load i64, ptr %3, align 8, !tbaa !76
  %5 = icmp eq i64 %1, %4
  br i1 %5, label %11, label %6

6:                                                ; preds = %2
  store i64 %1, ptr %3, align 8, !tbaa !76
  %7 = getelementptr inbounds nuw i8, ptr %0, i64 16
  %8 = load ptr, ptr %7, align 8, !tbaa !44
  %9 = tail call noundef i64 @_ZN3net10QuicFramer19GetMaxPlaintextSizeEm(ptr noundef nonnull align 8 dereferenceable(408) %8, i64 noundef %1)
  %10 = getelementptr inbounds nuw i8, ptr %0, i64 104
  store i64 %9, ptr %10, align 8, !tbaa !82
  br label %11

11:                                               ; preds = %2, %6
  ret void
}